; Function Attrs: nounwind uwtable
define internal noundef i32 @rc2_cbc_cipher(ptr noundef %0, ptr noundef %1, ptr noundef %2, i64 noundef %3) #1 {
  %5 = icmp ugt i64 %3, 1073741823
  br i1 %5, label %.lr.ph, label %._crit_edge

.lr.ph:                                           ; preds = %4
  %6 = getelementptr inbounds nuw i8, ptr %0, i64 40
  br label %7

7:                                                ; preds = %.lr.ph, %7
  %.019 = phi i64 [ %3, %.lr.ph ], [ %11, %7 ]
  %.01518 = phi ptr [ %2, %.lr.ph ], [ %12, %7 ]
  %.01617 = phi ptr [ %1, %.lr.ph ], [ %13, %7 ]
  %8 = tail call ptr @EVP_CIPHER_CTX_get_cipher_data(ptr noundef %0) #6
  %9 = getelementptr inbounds nuw i8, ptr %8, i64 4
  %10 = tail call i32 @EVP_CIPHER_CTX_is_encrypting(ptr noundef %0) #6
  tail call void @RC2_cbc_encrypt(ptr noundef %.01518, ptr noundef %.01617, i64 noundef 1073741824, ptr noundef nonnull %9, ptr noundef nonnull %6, i32 noundef %10) #6
  %11 = add i64 %.019, -1073741824
  %12 = getelementptr inbounds nuw i8, ptr %.01518, i64 1073741824
  %13 = getelementptr inbounds nuw i8, ptr %.01617, i64 1073741824
  %14 = icmp ugt i64 %11, 1073741823
  br i1 %14, label %7, label %._crit_edge, !llvm.loop !9

._crit_edge:                                      ; preds = %7, %4
  %.016.lcssa = phi ptr [ %1, %4 ], [ %13, %7 ]
  %.015.lcssa = phi ptr [ %2, %4 ], [ %12, %7 ]
  %.0.lcssa = phi i64 [ %3, %4 ], [ %11, %7 ]
  %.not = icmp eq i64 %.0.lcssa, 0
  br i1 %.not, label %20, label %15

15:                                               ; preds = %._crit_edge
  %16 = tail call ptr @EVP_CIPHER_CTX_get_cipher_data(ptr noundef %0) #6
  %17 = getelementptr inbounds nuw i8, ptr %16, i64 4
  %18 = getelementptr inbounds nuw i8, ptr %0, i64 40
  %19 = tail call i32 @EVP_CIPHER_CTX_is_encrypting(ptr noundef %0) #6
  tail call void @RC2_cbc_encrypt(ptr noundef %.015.lcssa, ptr noundef %.016.lcssa, i64 noundef %.0.lcssa, ptr noundef nonnull %17, ptr noundef nonnull %18, i32 noundef %19) #6
  br label %20

20:                                               ; preds = %15, %._crit_edge
  ret i32 1
}